; Function Attrs: mustprogress uwtable
define noundef zeroext i1 @_ZN3nix10LocalStore19pathInfoIsUntrustedERKNS_13ValidPathInfoE(ptr noundef nonnull align 8 dereferenceable(504) %0, ptr noundef nonnull align 8 dereferenceable(384) %1) unnamed_addr #5 align 2 {
  %3 = load ptr, ptr %0, align 8
  %4 = getelementptr i8, ptr %3, i64 -152
  %5 = load i64, ptr %4, align 8
  %6 = getelementptr inbounds i8, ptr %0, i64 %5
  %7 = getelementptr inbounds i8, ptr %6, i64 144
  %8 = load i8, ptr %7, align 1
  %9 = and i8 %8, 1
  %.not = icmp eq i8 %9, 0
  br i1 %.not, label %16, label %10

10:                                               ; preds = %2
  %11 = getelementptr i8, ptr %3, i64 -24
  %12 = load i64, ptr %11, align 8
  %13 = getelementptr inbounds i8, ptr %0, i64 %12
  %14 = tail call noundef nonnull align 8 dereferenceable(48) ptr @_ZN3nix10LocalStore13getPublicKeysB5cxx11Ev(ptr noundef nonnull align 8 dereferenceable(504) %0)
  %15 = tail call noundef i64 @_ZNK3nix13ValidPathInfo15checkSignaturesERKNS_5StoreERKSt3mapINSt7__cxx1112basic_stringIcSt11char_traitsIcESaIcEEENS_9PublicKeyESt4lessISA_ESaISt4pairIKSA_SB_EEE(ptr noundef nonnull align 8 dereferenceable(384) %1, ptr noundef nonnull align 8 dereferenceable(264) %13, ptr noundef nonnull align 8 dereferenceable(48) %14)
  %.not2 = icmp eq i64 %15, 0
  br label %16

16:                                               ; preds = %10, %2
  %17 = phi i1 [ false, %2 ], [ %.not2, %10 ]
  ret i1 %17
}